target datalayout = "e-m:e-p270:32:32-p271:32:32-p272:64:64-i64:64-i128:128-f80:128-n8:16:32:64-S128"
target triple = "x86_64-pc-linux-gnu"

@.str = private unnamed_addr constant [6 x i8] c"gsm_a\00", align 1

; Function Attrs: alwaysinline nounwind
define internal ptr @memset.inline(ptr %0, i32 %1, i64 %2) #6 {
  %4 = alloca ptr, align 8
  %5 = alloca i32, align 4
  %6 = alloca i64, align 8
  store ptr %0, ptr %4, align 8
  store i32 %1, ptr %5, align 4
  store i64 %2, ptr %6, align 8
  %7 = load ptr, ptr %4, align 8
  %8 = load i32, ptr %5, align 4
  %9 = load i64, ptr %6, align 8
  %10 = load ptr, ptr %4, align 8
  %11 = call i64 @llvm.objectsize.i64.p0(ptr %10, i1 false, i1 true, i1 true)
  %12 = call ptr @__memset_chk(ptr noundef %7, i32 noundef %8, i64 noundef %9, i64 noundef %11) #11
  ret ptr %12
}

; Function Attrs: null_pointer_is_valid sspstrong uwtable
define internal void @gsm_a_stat_init(ptr noundef %0, ptr noundef %1) #0 {
  %3 = alloca ptr, align 8
  %4 = alloca ptr, align 8
  %5 = alloca ptr, align 8
  %6 = alloca ptr, align 8
  %7 = alloca i64, align 8
  %8 = alloca i64, align 8
  %9 = alloca ptr, align 8
  %10 = alloca ptr, align 8
  store ptr %0, ptr %3, align 8
  store ptr %1, ptr %4, align 8
  call void @llvm.lifetime.start.p0(i64 8, ptr %5) #11
  call void @llvm.lifetime.start.p0(i64 8, ptr %6) #11
  call void @llvm.lifetime.start.p0(i64 8, ptr %7) #11
  store i64 1, ptr %7, align 8
  call void @llvm.lifetime.start.p0(i64 8, ptr %8) #11
  store i64 10240, ptr %8, align 8
  call void @llvm.lifetime.start.p0(i64 8, ptr %9) #11
  %11 = load i64, ptr %8, align 8
  %12 = icmp eq i64 %11, 1
  br i1 %12, label %13, label %16

13:                                               ; preds = %2
  %14 = load i64, ptr %7, align 8
  %15 = call noalias ptr @g_malloc(i64 noundef %14) #12
  store ptr %15, ptr %9, align 8
  br label %37

16:                                               ; preds = %2
  %17 = load i64, ptr %7, align 8
  %18 = call i1 @llvm.is.constant.i64(i64 %17)
  br i1 %18, label %19, label %32

19:                                               ; preds = %16
  %20 = load i64, ptr %8, align 8
  %21 = icmp eq i64 %20, 0
  br i1 %21, label %27, label %22

22:                                               ; preds = %19
  %23 = load i64, ptr %7, align 8
  %24 = load i64, ptr %8, align 8
  %25 = udiv i64 -1, %24
  %26 = icmp ule i64 %23, %25
  br i1 %26, label %27, label %32

27:                                               ; preds = %22, %19
  %28 = load i64, ptr %7, align 8
  %29 = load i64, ptr %8, align 8
  %30 = mul i64 %28, %29
  %31 = call noalias ptr @g_malloc(i64 noundef %30) #12
  store ptr %31, ptr %9, align 8
  br label %36

32:                                               ; preds = %22, %16
  %33 = load i64, ptr %7, align 8
  %34 = load i64, ptr %8, align 8
  %35 = call noalias ptr @g_malloc_n(i64 noundef %33, i64 noundef %34) #13
  store ptr %35, ptr %9, align 8
  br label %36

36:                                               ; preds = %32, %27
  br label %37

37:                                               ; preds = %36, %13
  %38 = load ptr, ptr %9, align 8
  store ptr %38, ptr %10, align 8
  call void @llvm.lifetime.end.p0(i64 8, ptr %9) #11
  call void @llvm.lifetime.end.p0(i64 8, ptr %8) #11
  call void @llvm.lifetime.end.p0(i64 8, ptr %7) #11
  %39 = load ptr, ptr %10, align 8
  store ptr %39, ptr %5, align 8
  %40 = load ptr, ptr %5, align 8
  %41 = call ptr @memset.inline(ptr noundef %40, i32 noundef 0, i64 noundef 10240) #11
  %42 = load ptr, ptr %5, align 8
  %43 = call ptr @register_tap_listener(ptr noundef @.str, ptr noundef %42, ptr noundef null, i32 noundef 0, ptr noundef null, ptr noundef @gsm_a_stat_packet, ptr noundef @gsm_a_stat_draw, ptr noundef null)
  store ptr %43, ptr %6, align 8
  %44 = load ptr, ptr %6, align 8
  %45 = icmp ne ptr %44, null
  br i1 %45, label %46, label %50

46:                                               ; preds = %37
  %47 = load ptr, ptr %5, align 8
  call void @g_free(ptr noundef %47)
  %48 = load ptr, ptr %6, align 8
  %49 = call ptr @g_string_free(ptr noundef %48, i32 noundef 1)
  call void @exit(i32 noundef 1) #14
  unreachable

50:                                               ; preds = %37
  call void @llvm.lifetime.end.p0(i64 8, ptr %6) #11
  call void @llvm.lifetime.end.p0(i64 8, ptr %5) #11
  ret void
}