; Function Attrs: null_pointer_is_valid sspstrong uwtable
define internal void @gsm_a_stat_init(ptr readnone captures(none) %0, ptr readnone captures(none) %1) #0 {
  %3 = tail call noalias dereferenceable_or_null(10240) ptr @g_malloc(i64 noundef 10240) #6
  tail call void @llvm.memset.p0.i64(ptr noundef align 1 dereferenceable(10240) %3, i8 noundef 0, i64 noundef 10240, i1 noundef false) #7
  %4 = tail call ptr @register_tap_listener(ptr noundef nonnull @.str, ptr noundef %3, ptr noundef null, i32 noundef 0, ptr noundef null, ptr noundef nonnull @gsm_a_stat_packet, ptr noundef nonnull @gsm_a_stat_draw, ptr noundef null)
  %.not = icmp eq ptr %4, null
  br i1 %.not, label %7, label %5

5:                                                ; preds = %2
  tail call void @g_free(ptr noundef %3)
  %6 = tail call ptr @g_string_free(ptr noundef nonnull %4, i32 noundef 1)
  tail call void @exit(i32 noundef 1) #8
  unreachable

7:                                                ; preds = %2
  ret void
}